; ModuleID = '54/970.c'
source_filename = "54/970.c"
target datalayout = "e-m:e-p270:32:32-p271:32:32-p272:64:64-i64:64-f80:128-n8:16:32:64-S128"
target triple = "x86_64-pc-linux-gnu"

@.str = private unnamed_addr constant [6 x i8] c"%d %d\00", align 1
@.str.1 = private unnamed_addr constant [3 x i8] c"%d\00", align 1

; Function Attrs: noinline nounwind uwtable
define dso_local i32 @main(i32 %0, i8** %1) #0 {
  %3 = alloca i32, align 4
  %4 = alloca i32, align 4
  %5 = alloca i8**, align 8
  %6 = alloca i32, align 4
  %7 = alloca i32, align 4
  %8 = alloca i32, align 4
  %9 = alloca i32, align 4
  %10 = alloca i32, align 4
  store i32 0, i32* %3, align 4
  store i32 %0, i32* %4, align 4
  store i8** %1, i8*** %5, align 8
  %11 = call i32 (i8*, ...) @__isoc99_scanf(i8* getelementptr inbounds ([6 x i8], [6 x i8]* @.str, i64 0, i64 0), i32* %7, i32* %8)
  store i32 1, i32* %6, align 4
  br label %12

12:                                               ; preds = %50, %2
  %13 = load i32, i32* %6, align 4
  store i32 %13, i32* %10, align 4
  store i32 0, i32* %9, align 4
  br label %14

14:                                               ; preds = %38, %12
  %15 = load i32, i32* %9, align 4
  %16 = load i32, i32* %7, align 4
  %17 = icmp slt i32 %15, %16
  br i1 %17, label %18, label %39

18:                                               ; preds = %14
  %19 = load i32, i32* %10, align 4
  %20 = load i32, i32* %10, align 4
  %21 = load i32, i32* %7, align 4
  %22 = sdiv i32 %20, %21
  %23 = load i32, i32* %7, align 4
  %24 = mul nsw i32 %22, %23
  %25 = sub nsw i32 %19, %24
  %26 = load i32, i32* %8, align 4
  %27 = icmp eq i32 %25, %26
  br i1 %27, label %28, label %37

28:                                               ; preds = %18
  %29 = load i32, i32* %10, align 4
  %30 = load i32, i32* %7, align 4
  %31 = sdiv i32 %29, %30
  %32 = load i32, i32* %7, align 4
  %33 = sub nsw i32 %32, 1
  %34 = mul nsw i32 %31, %33
  store i32 %34, i32* %10, align 4
  %35 = load i32, i32* %9, align 4
  %36 = add nsw i32 %35, 1
  store i32 %36, i32* %9, align 4
  br label %38

37:                                               ; preds = %18
  br label %39

38:                                               ; preds = %28
  br label %14

39:                                               ; preds = %37, %14
  %40 = load i32, i32* %10, align 4
  %41 = icmp sge i32 %40, 1
  br i1 %41, label %42, label %49

42:                                               ; preds = %39
  %43 = load i32, i32* %9, align 4
  %44 = load i32, i32* %7, align 4
  %45 = icmp eq i32 %43, %44
  br i1 %45, label %46, label %49

46:                                               ; preds = %42
  %47 = load i32, i32* %6, align 4
  %48 = call i32 (i8*, ...) @printf(i8* getelementptr inbounds ([3 x i8], [3 x i8]* @.str.1, i64 0, i64 0), i32 %47)
  br label %53

49:                                               ; preds = %42, %39
  br label %50

50:                                               ; preds = %49
  %51 = load i32, i32* %6, align 4
  %52 = add nsw i32 %51, 1
  store i32 %52, i32* %6, align 4
  br label %12

53:                                               ; preds = %46
  ret i32 0
}

declare dso_local i32 @__isoc99_scanf(i8*, ...) #1

declare dso_local i32 @printf(i8*, ...) #1


!llvm.module.flags = !{!0}
!llvm.ident = !{!1}

!0 = !{i32 1, !"wchar_size", i32 4}
!1 = !{!"clang version 10.0.0-4ubuntu1 "}
