; ModuleID = 'source-C-CXX/53/970.c'
source_filename = "source-C-CXX/53/970.c"
target datalayout = "e-m:e-p270:32:32-p271:32:32-p272:64:64-i64:64-f80:128-n8:16:32:64-S128"
target triple = "x86_64-pc-linux-gnu"

@.str = private unnamed_addr constant [6 x i8] c"%d %d\00", align 1
@.str.1 = private unnamed_addr constant [3 x i8] c"%d\00", align 1

; Function Attrs: nofree nounwind sspstrong uwtable
define dso_local i32 @main(i32 %0, i8** nocapture readnone %1) local_unnamed_addr #0 {
  %3 = alloca i32, align 4
  %4 = alloca i32, align 4
  %5 = bitcast i32* %3 to i8*
  call void @llvm.lifetime.start.p0i8(i64 4, i8* nonnull %5) #3
  %6 = bitcast i32* %4 to i8*
  call void @llvm.lifetime.start.p0i8(i64 4, i8* nonnull %6) #3
  %7 = call i32 (i8*, ...) @__isoc99_scanf(i8* getelementptr inbounds ([6 x i8], [6 x i8]* @.str, i64 0, i64 0), i32* nonnull %3, i32* nonnull %4)
  %8 = load i32, i32* %3, align 4, !tbaa !5
  %9 = load i32, i32* %4, align 4
  %10 = add nsw i32 %8, -1
  %11 = icmp sgt i32 %8, 0
  br i1 %11, label %12, label %32

12:                                               ; preds = %2, %21
  %13 = phi i32 [ %27, %21 ], [ 1, %2 ]
  br label %14

14:                                               ; preds = %12, %28
  %15 = phi i32 [ %13, %12 ], [ %29, %28 ]
  %16 = phi i32 [ 0, %12 ], [ %30, %28 ]
  %17 = sdiv i32 %15, %8
  %18 = mul nsw i32 %17, %8
  %19 = srem i32 %15, %8
  %20 = icmp eq i32 %19, %9
  br i1 %20, label %28, label %21

21:                                               ; preds = %28, %14
  %22 = phi i32 [ %16, %14 ], [ %8, %28 ]
  %23 = phi i32 [ %15, %14 ], [ %29, %28 ]
  %24 = icmp sgt i32 %23, 0
  %25 = icmp eq i32 %22, %8
  %26 = select i1 %24, i1 %25, i1 false
  %27 = add nuw nsw i32 %13, 1
  br i1 %26, label %35, label %12

28:                                               ; preds = %14
  %29 = mul nsw i32 %17, %10
  %30 = add nuw nsw i32 %16, 1
  %31 = icmp eq i32 %30, %8
  br i1 %31, label %21, label %14, !llvm.loop !9

32:                                               ; preds = %2
  %33 = icmp eq i32 %8, 0
  br i1 %33, label %35, label %34

34:                                               ; preds = %32, %34
  br label %34

35:                                               ; preds = %21, %32
  %36 = phi i32 [ 1, %32 ], [ %13, %21 ]
  %37 = call i32 (i8*, ...) @printf(i8* nonnull dereferenceable(1) getelementptr inbounds ([3 x i8], [3 x i8]* @.str.1, i64 0, i64 0), i32 %36)
  call void @llvm.lifetime.end.p0i8(i64 4, i8* nonnull %6) #3
  call void @llvm.lifetime.end.p0i8(i64 4, i8* nonnull %5) #3
  ret i32 0
}

; Function Attrs: argmemonly mustprogress nofree nosync nounwind willreturn
declare void @llvm.lifetime.start.p0i8(i64 immarg, i8* nocapture) #1

; Function Attrs: nofree nounwind
declare noundef i32 @__isoc99_scanf(i8* nocapture noundef readonly, ...) local_unnamed_addr #2

; Function Attrs: nofree nounwind
declare noundef i32 @printf(i8* nocapture noundef readonly, ...) local_unnamed_addr #2

; Function Attrs: argmemonly mustprogress nofree nosync nounwind willreturn
declare void @llvm.lifetime.end.p0i8(i64 immarg, i8* nocapture) #1


!llvm.module.flags = !{!0, !1, !2, !3}
!llvm.ident = !{!4}

!0 = !{i32 1, !"wchar_size", i32 4}
!1 = !{i32 7, !"PIC Level", i32 2}
!2 = !{i32 7, !"PIE Level", i32 2}
!3 = !{i32 7, !"uwtable", i32 1}
!4 = !{!"clang version 13.0.0"}
!5 = !{!6, !6, i64 0}
!6 = !{!"int", !7, i64 0}
!7 = !{!"omnipotent char", !8, i64 0}
!8 = !{!"Simple C/C++ TBAA"}
!9 = distinct !{!9, !10}
!10 = !{!"llvm.loop.mustprogress"}
